ARM GAS  C:\Users\Leiuqeze\AppData\Local\Temp\ccpKB82g.s 			page 1


   1              		.syntax unified
   2              		.cpu cortex-m3
   3              		.fpu softvfp
   4              		.eabi_attribute 20, 1
   5              		.eabi_attribute 21, 1
   6              		.eabi_attribute 23, 3
   7              		.eabi_attribute 24, 1
   8              		.eabi_attribute 25, 1
   9              		.eabi_attribute 26, 1
  10              		.eabi_attribute 30, 6
  11              		.eabi_attribute 34, 1
  12              		.eabi_attribute 18, 4
  13              		.thumb
  14              		.file	"main.c"
  15              		.text
  16              	.Ltext0:
  17              		.cfi_sections	.debug_frame
  18              		.global	initialized
  19              		.bss
  20              		.type	initialized, %object
  21              		.size	initialized, 1
  22              	initialized:
  23 0000 00       		.space	1
  24              		.comm	rxBuffer,32,4
  25              		.global	rxBufLen
  26              		.type	rxBufLen, %object
  27              		.size	rxBufLen, 1
  28              	rxBufLen:
  29 0001 00       		.space	1
  30              		.global	commandReady
  31              		.type	commandReady, %object
  32              		.size	commandReady, 1
  33              	commandReady:
  34 0002 00       		.space	1
  35              		.global	command
  36 0003 00       		.align	2
  37              		.type	command, %object
  38              		.size	command, 32
  39              	command:
  40 0004 00000000 		.space	32
  40      00000000 
  40      00000000 
  40      00000000 
  40      00000000 
  41              		.global	adcOn
  42              		.type	adcOn, %object
  43              		.size	adcOn, 1
  44              	adcOn:
  45 0024 00       		.space	1
  46              		.global	adcRez
  47              		.data
  48              		.type	adcRez, %object
  49              		.size	adcRez, 1
  50              	adcRez:
  51 0000 0C       		.byte	12
  52              		.global	adcSPS
  53 0001 000000   		.align	2
ARM GAS  C:\Users\Leiuqeze\AppData\Local\Temp\ccpKB82g.s 			page 2


  54              		.type	adcSPS, %object
  55              		.size	adcSPS, 4
  56              	adcSPS:
  57 0004 A0860100 		.word	100000
  58              		.comm	adcFrame,800,4
  59              		.global	adcFrameReady
  60              		.bss
  61              		.type	adcFrameReady, %object
  62              		.size	adcFrameReady, 1
  63              	adcFrameReady:
  64 0025 00       		.space	1
  65              		.global	dacOn
  66              		.type	dacOn, %object
  67              		.size	dacOn, 1
  68              	dacOn:
  69 0026 00       		.space	1
  70              		.global	dacFreq
  71              		.data
  72              		.align	2
  73              		.type	dacFreq, %object
  74              		.size	dacFreq, 4
  75              	dacFreq:
  76 0008 64000000 		.word	100
  77              		.global	dacVPP
  78              		.align	2
  79              		.type	dacVPP, %object
  80              		.size	dacVPP, 4
  81              	dacVPP:
  82 000c 00000040 		.word	1073741824
  83              		.global	dacOffset
  84              		.align	2
  85              		.type	dacOffset, %object
  86              		.size	dacOffset, 4
  87              	dacOffset:
  88 0010 0000803F 		.word	1065353216
  89              		.global	dacWave
  90              		.type	dacWave, %object
  91              		.size	dacWave, 1
  92              	dacWave:
  93 0014 01       		.byte	1
  94              		.global	dacDuty
  95              		.type	dacDuty, %object
  96              		.size	dacDuty, 1
  97              	dacDuty:
  98 0015 32       		.byte	50
  99              		.global	ws
 100 0016 0000     		.bss
 101              		.type	ws, %object
 102              		.size	ws, 1
 103              	ws:
 104 0027 00       		.space	1
 105              		.global	ms
 106              		.type	ms, %object
 107              		.size	ms, 1
 108              	ms:
 109 0028 00       		.space	1
 110              		.comm	DMA_ADC_MEM_Chan,1,1
ARM GAS  C:\Users\Leiuqeze\AppData\Local\Temp\ccpKB82g.s 			page 3


 111              		.comm	DMA_ADC_MEM_TD,1,4
 112 0029 000000   		.section	.rodata
 113              		.align	2
 114              	.LC0:
 115 0000 2350435F 		.ascii	"#PC_REQ_CONNECT#\000"
 115      5245515F 
 115      434F4E4E 
 115      45435423 
 115      00
 116 0011 000000   		.align	2
 117              	.LC1:
 118 0014 50534F43 		.ascii	"PSOC_READY\000"
 118      5F524541 
 118      445900
 119 001f 00       		.align	2
 120              	.LC2:
 121 0020 23462564 		.ascii	"#F%dD\000"
 121      4400
 122              		.section	.text.main,"ax",%progbits
 123              		.align	2
 124              		.global	main
 125              		.thumb
 126              		.thumb_func
 127              		.type	main, %function
 128              	main:
 129              	.LFB56:
 130              		.file 1 ".\\main.c"
   1:.\main.c      **** #include <main.h>
   2:.\main.c      **** #include <device.h>
   3:.\main.c      **** #include <stdlib.h>
   4:.\main.c      **** #include <stdio.h>
   5:.\main.c      **** 
   6:.\main.c      **** CY_ISR_PROTO(UART_RX_INTER);
   7:.\main.c      **** CY_ISR_PROTO(TIMER_DMA_INTER);
   8:.\main.c      **** CY_ISR_PROTO(DMA_FRAME_INTER);
   9:.\main.c      **** 
  10:.\main.c      **** // Value describes sync state with PC GUI
  11:.\main.c      **** uint8 initialized = 0;
  12:.\main.c      **** 
  13:.\main.c      **** // UART variables
  14:.\main.c      **** char  rxBuffer[RX_BUFFER_SIZE];
  15:.\main.c      **** uint8 rxBufLen = 0;
  16:.\main.c      **** uint8 commandReady = 0;
  17:.\main.c      **** char  command[RX_BUFFER_SIZE] = {0};
  18:.\main.c      **** 
  19:.\main.c      **** // ADC Variables
  20:.\main.c      **** uint8  adcOn         = 0;
  21:.\main.c      **** uint8  adcRez        = DEFAULT_ADC_RESOLUTION;
  22:.\main.c      **** uint32 adcSPS        = DEFAULT_ADC_SPS;
  23:.\main.c      **** uint16 adcFrame[ADC_FRAME_SIZE];
  24:.\main.c      **** uint8  adcFrameReady = 0;
  25:.\main.c      **** 
  26:.\main.c      **** // DAC Variables
  27:.\main.c      **** uint8    dacOn     = 0;
  28:.\main.c      **** uint32   dacFreq   = DEFAULT_DAC_FREQUENCY;
  29:.\main.c      **** float    dacVPP    = DEFAULT_DAC_VPP;
  30:.\main.c      **** float    dacOffset = DEFAULT_DAC_OFFSET;
ARM GAS  C:\Users\Leiuqeze\AppData\Local\Temp\ccpKB82g.s 			page 4


  31:.\main.c      **** waveform dacWave   = DEFAULT_DAC_WAVE;
  32:.\main.c      **** uint8    dacDuty   = DEFAULT_DAC_DUTY;
  33:.\main.c      **** uint8    ws        = 0;
  34:.\main.c      **** uint8    ms        = 0;
  35:.\main.c      **** 
  36:.\main.c      **** /* Variable declarations for DMA_ADC_MEM */
  37:.\main.c      **** uint8 DMA_ADC_MEM_Chan;
  38:.\main.c      **** uint8 DMA_ADC_MEM_TD[1];
  39:.\main.c      **** 
  40:.\main.c      **** int main() {
 131              		.loc 1 40 0
 132              		.cfi_startproc
 133              		@ args = 0, pretend = 0, frame = 16
 134              		@ frame_needed = 1, uses_anonymous_args = 0
 135 0000 80B5     		push	{r7, lr}
 136              		.cfi_def_cfa_offset 8
 137              		.cfi_offset 7, -8
 138              		.cfi_offset 14, -4
 139 0002 84B0     		sub	sp, sp, #16
 140              		.cfi_def_cfa_offset 24
 141 0004 00AF     		add	r7, sp, #0
 142              		.cfi_def_cfa_register 7
  41:.\main.c      ****     uint16 i;
  42:.\main.c      ****     char framePrefix[10];
  43:.\main.c      ****     
  44:.\main.c      ****     // Init modules
  45:.\main.c      ****     UART_Start();
 143              		.loc 1 45 0
 144 0006 FFF7FEFF 		bl	UART_Start
  46:.\main.c      ****     ADC_Start();
 145              		.loc 1 46 0
 146 000a FFF7FEFF 		bl	ADC_Start
  47:.\main.c      ****     DMA_ADC_MEM_Config();
 147              		.loc 1 47 0
 148 000e FFF7FEFF 		bl	DMA_ADC_MEM_Config
  48:.\main.c      ****     TIMER_DMA_Init();
 149              		.loc 1 48 0
 150 0012 FFF7FEFF 		bl	TIMER_DMA_Init
  49:.\main.c      ****     UART_RX_StartEx(UART_RX_INTER);
 151              		.loc 1 49 0
 152 0016 2E48     		ldr	r0, .L9
 153 0018 FFF7FEFF 		bl	UART_RX_StartEx
  50:.\main.c      ****     DMA_ENABLE_StartEx(TIMER_DMA_INTER);
 154              		.loc 1 50 0
 155 001c 2D48     		ldr	r0, .L9+4
 156 001e FFF7FEFF 		bl	DMA_ENABLE_StartEx
  51:.\main.c      ****     DMA_FRAME_READY_StartEx(DMA_FRAME_INTER);
 157              		.loc 1 51 0
 158 0022 2D48     		ldr	r0, .L9+8
 159 0024 FFF7FEFF 		bl	DMA_FRAME_READY_StartEx
  52:.\main.c      ****     CYGlobalIntEnable;
 160              		.loc 1 52 0
 161              	@ 52 ".\main.c" 1
 162 0028 62B6     		CPSIE   i
 163              	@ 0 "" 2
  53:.\main.c      ****     
  54:.\main.c      ****     for(;;) {
ARM GAS  C:\Users\Leiuqeze\AppData\Local\Temp\ccpKB82g.s 			page 5


  55:.\main.c      ****         // Sync with the GUI
  56:.\main.c      ****         while(!initialized) {
 164              		.loc 1 56 0
 165              		.thumb
 166 002a 13E0     		b	.L2
 167              	.L3:
  57:.\main.c      ****             if (commandReady) {
 168              		.loc 1 57 0
 169 002c 2B4B     		ldr	r3, .L9+12
 170 002e 1B78     		ldrb	r3, [r3]	@ zero_extendqisi2
 171 0030 002B     		cmp	r3, #0
 172 0032 0FD0     		beq	.L2
  58:.\main.c      ****                 commandReady = 0;
 173              		.loc 1 58 0
 174 0034 294B     		ldr	r3, .L9+12
 175 0036 0022     		movs	r2, #0
 176 0038 1A70     		strb	r2, [r3]
  59:.\main.c      ****                 if (strcmp(command, PC_CONNECT) == 0) {
 177              		.loc 1 59 0
 178 003a 2948     		ldr	r0, .L9+16
 179 003c 2949     		ldr	r1, .L9+20
 180 003e FFF7FEFF 		bl	strcmp
 181 0042 0346     		mov	r3, r0
 182 0044 002B     		cmp	r3, #0
 183 0046 05D1     		bne	.L2
  60:.\main.c      ****                     initialized = 1;
 184              		.loc 1 60 0
 185 0048 274B     		ldr	r3, .L9+24
 186 004a 0122     		movs	r2, #1
 187 004c 1A70     		strb	r2, [r3]
  61:.\main.c      ****                     UART_PutString(PSOC_ACK);
 188              		.loc 1 61 0
 189 004e 2748     		ldr	r0, .L9+28
 190 0050 FFF7FEFF 		bl	UART_PutString
 191              	.L2:
  56:.\main.c      ****         while(!initialized) {
 192              		.loc 1 56 0 discriminator 1
 193 0054 244B     		ldr	r3, .L9+24
 194 0056 1B78     		ldrb	r3, [r3]	@ zero_extendqisi2
 195 0058 002B     		cmp	r3, #0
 196 005a E7D0     		beq	.L3
  62:.\main.c      ****                 }
  63:.\main.c      ****             }
  64:.\main.c      ****         }
  65:.\main.c      ****         
  66:.\main.c      ****         // Parse a command if available
  67:.\main.c      ****         if (commandReady) {
 197              		.loc 1 67 0
 198 005c 1F4B     		ldr	r3, .L9+12
 199 005e 1B78     		ldrb	r3, [r3]	@ zero_extendqisi2
 200 0060 002B     		cmp	r3, #0
 201 0062 05D0     		beq	.L4
  68:.\main.c      ****             parseCommand(command);
 202              		.loc 1 68 0
 203 0064 1E48     		ldr	r0, .L9+16
 204 0066 FFF7FEFF 		bl	parseCommand
  69:.\main.c      ****             commandReady = 0;
ARM GAS  C:\Users\Leiuqeze\AppData\Local\Temp\ccpKB82g.s 			page 6


 205              		.loc 1 69 0
 206 006a 1C4B     		ldr	r3, .L9+12
 207 006c 0022     		movs	r2, #0
 208 006e 1A70     		strb	r2, [r3]
 209              	.L4:
  70:.\main.c      ****         }
  71:.\main.c      ****         
  72:.\main.c      ****         // Send ADC frame to PC if available
  73:.\main.c      ****         if (adcFrameReady) {
 210              		.loc 1 73 0
 211 0070 1F4B     		ldr	r3, .L9+32
 212 0072 1B78     		ldrb	r3, [r3]	@ zero_extendqisi2
 213 0074 002B     		cmp	r3, #0
 214 0076 29D0     		beq	.L5
  74:.\main.c      ****             adcFrameReady = 0;
 215              		.loc 1 74 0
 216 0078 1D4B     		ldr	r3, .L9+32
 217 007a 0022     		movs	r2, #0
 218 007c 1A70     		strb	r2, [r3]
  75:.\main.c      ****             #ifndef DEBUG_OUTPUT
  76:.\main.c      ****             sprintf(framePrefix, "#F%dD", ADC_FRAME_SIZE);
 219              		.loc 1 76 0
 220 007e 3B1D     		adds	r3, r7, #4
 221 0080 1846     		mov	r0, r3
 222 0082 1C49     		ldr	r1, .L9+36
 223 0084 4FF4C872 		mov	r2, #400
 224 0088 FFF7FEFF 		bl	sprintf
  77:.\main.c      ****             UART_PutString(framePrefix);
 225              		.loc 1 77 0
 226 008c 3B1D     		adds	r3, r7, #4
 227 008e 1846     		mov	r0, r3
 228 0090 FFF7FEFF 		bl	UART_PutString
  78:.\main.c      ****             for (i = 0; i < ADC_FRAME_SIZE; i++) {
 229              		.loc 1 78 0
 230 0094 0023     		movs	r3, #0
 231 0096 FB81     		strh	r3, [r7, #14]	@ movhi
 232 0098 14E0     		b	.L6
 233              	.L7:
  79:.\main.c      ****                 UART_PutChar((adcFrame[i] >> 8) & 0XFF);
 234              		.loc 1 79 0 discriminator 2
 235 009a FA89     		ldrh	r2, [r7, #14]
 236 009c 164B     		ldr	r3, .L9+40
 237 009e 33F81230 		ldrh	r3, [r3, r2, lsl #1]
 238 00a2 1B0A     		lsrs	r3, r3, #8
 239 00a4 9BB2     		uxth	r3, r3
 240 00a6 DBB2     		uxtb	r3, r3
 241 00a8 1846     		mov	r0, r3
 242 00aa FFF7FEFF 		bl	UART_PutChar
  80:.\main.c      ****                 UART_PutChar(adcFrame[i] & 0XFF);
 243              		.loc 1 80 0 discriminator 2
 244 00ae FA89     		ldrh	r2, [r7, #14]
 245 00b0 114B     		ldr	r3, .L9+40
 246 00b2 33F81230 		ldrh	r3, [r3, r2, lsl #1]
 247 00b6 DBB2     		uxtb	r3, r3
 248 00b8 1846     		mov	r0, r3
 249 00ba FFF7FEFF 		bl	UART_PutChar
  78:.\main.c      ****             for (i = 0; i < ADC_FRAME_SIZE; i++) {
ARM GAS  C:\Users\Leiuqeze\AppData\Local\Temp\ccpKB82g.s 			page 7


 250              		.loc 1 78 0 discriminator 2
 251 00be FB89     		ldrh	r3, [r7, #14]
 252 00c0 0133     		adds	r3, r3, #1
 253 00c2 FB81     		strh	r3, [r7, #14]	@ movhi
 254              	.L6:
  78:.\main.c      ****             for (i = 0; i < ADC_FRAME_SIZE; i++) {
 255              		.loc 1 78 0 is_stmt 0 discriminator 1
 256 00c4 FB89     		ldrh	r3, [r7, #14]
 257 00c6 B3F5C87F 		cmp	r3, #400
 258 00ca E6D3     		bcc	.L7
 259              	.L5:
  81:.\main.c      ****             }
  82:.\main.c      ****             #endif
  83:.\main.c      ****         }
  84:.\main.c      ****     }
 260              		.loc 1 84 0 is_stmt 1
 261 00cc 00BF     		nop
  56:.\main.c      ****         while(!initialized) {
 262              		.loc 1 56 0
 263 00ce C1E7     		b	.L2
 264              	.L10:
 265              		.align	2
 266              	.L9:
 267 00d0 00000000 		.word	UART_RX_INTER
 268 00d4 00000000 		.word	TIMER_DMA_INTER
 269 00d8 00000000 		.word	DMA_FRAME_INTER
 270 00dc 00000000 		.word	commandReady
 271 00e0 00000000 		.word	command
 272 00e4 00000000 		.word	.LC0
 273 00e8 00000000 		.word	initialized
 274 00ec 14000000 		.word	.LC1
 275 00f0 00000000 		.word	adcFrameReady
 276 00f4 20000000 		.word	.LC2
 277 00f8 00000000 		.word	adcFrame
 278              		.cfi_endproc
 279              	.LFE56:
 280              		.size	main, .-main
 281              		.section	.rodata
 282 0026 0000     		.align	2
 283              	.LC3:
 284 0028 41465253 		.ascii	"AFRSZ#\000"
 284      5A2300
 285 002f 00       		.align	2
 286              	.LC4:
 287 0030 4144464F 		.ascii	"ADFOVWZ#\000"
 287      56575A23 
 287      00
 288 0039 000000   		.align	2
 289              	.LC5:
 290 003c 2350435F 		.ascii	"#PC_REQ_DISCONNECT#\000"
 290      5245515F 
 290      44495343 
 290      4F4E4E45 
 290      43542300 
 291              		.section	.text.parseCommand,"ax",%progbits
 292              		.align	2
 293              		.global	parseCommand
ARM GAS  C:\Users\Leiuqeze\AppData\Local\Temp\ccpKB82g.s 			page 8


 294              		.thumb
 295              		.thumb_func
 296              		.type	parseCommand, %function
 297              	parseCommand:
 298              	.LFB57:
  85:.\main.c      ****     return 0;
  86:.\main.c      **** }
  87:.\main.c      **** 
  88:.\main.c      **** void parseCommand(char *cmd) {
 299              		.loc 1 88 0
 300              		.cfi_startproc
 301              		@ args = 0, pretend = 0, frame = 16
 302              		@ frame_needed = 1, uses_anonymous_args = 0
 303 0000 80B5     		push	{r7, lr}
 304              		.cfi_def_cfa_offset 8
 305              		.cfi_offset 7, -8
 306              		.cfi_offset 14, -4
 307 0002 84B0     		sub	sp, sp, #16
 308              		.cfi_def_cfa_offset 24
 309 0004 00AF     		add	r7, sp, #0
 310              		.cfi_def_cfa_register 7
 311 0006 7860     		str	r0, [r7, #4]
  89:.\main.c      ****     char *param = cmd + 1;
 312              		.loc 1 89 0
 313 0008 7B68     		ldr	r3, [r7, #4]
 314 000a 0133     		adds	r3, r3, #1
 315 000c FB60     		str	r3, [r7, #12]
  90:.\main.c      ****     
  91:.\main.c      ****     if (*param == 'A') {
 316              		.loc 1 91 0
 317 000e FB68     		ldr	r3, [r7, #12]
 318 0010 1B78     		ldrb	r3, [r3]	@ zero_extendqisi2
 319 0012 412B     		cmp	r3, #65
 320 0014 72D1     		bne	.L12
  92:.\main.c      ****         #ifdef DEBUG_OUTPUT
  93:.\main.c      ****         UART_PutString("ADC");
  94:.\main.c      ****         #endif
  95:.\main.c      ****         ++param;
 321              		.loc 1 95 0
 322 0016 FB68     		ldr	r3, [r7, #12]
 323 0018 0133     		adds	r3, r3, #1
 324 001a FB60     		str	r3, [r7, #12]
  96:.\main.c      ****         while (*param != '#') {
 325              		.loc 1 96 0
 326 001c 69E0     		b	.L13
 327              	.L24:
  97:.\main.c      ****             switch (*param++) {
 328              		.loc 1 97 0
 329 001e FB68     		ldr	r3, [r7, #12]
 330 0020 5A1C     		adds	r2, r3, #1
 331 0022 FA60     		str	r2, [r7, #12]
 332 0024 1B78     		ldrb	r3, [r3]	@ zero_extendqisi2
 333 0026 413B     		subs	r3, r3, #65
 334 0028 192B     		cmp	r3, #25
 335 002a 5CD8     		bhi	.L49
 336 002c 01A2     		adr	r2, .L16
 337 002e 52F823F0 		ldr	pc, [r2, r3, lsl #2]
ARM GAS  C:\Users\Leiuqeze\AppData\Local\Temp\ccpKB82g.s 			page 9


 338 0032 00BF     		.p2align 2
 339              	.L16:
 340 0034 9D000000 		.word	.L15+1
 341 0038 E7000000 		.word	.L49+1
 342 003c E7000000 		.word	.L49+1
 343 0040 E7000000 		.word	.L49+1
 344 0044 E7000000 		.word	.L49+1
 345 0048 E7000000 		.word	.L49+1
 346 004c E7000000 		.word	.L49+1
 347 0050 E7000000 		.word	.L49+1
 348 0054 E7000000 		.word	.L49+1
 349 0058 E7000000 		.word	.L49+1
 350 005c E7000000 		.word	.L49+1
 351 0060 E7000000 		.word	.L49+1
 352 0064 E7000000 		.word	.L49+1
 353 0068 E7000000 		.word	.L49+1
 354 006c E7000000 		.word	.L49+1
 355 0070 E7000000 		.word	.L49+1
 356 0074 E7000000 		.word	.L49+1
 357 0078 E7000000 		.word	.L49+1
 358 007c E7000000 		.word	.L49+1
 359 0080 E7000000 		.word	.L49+1
 360 0084 E7000000 		.word	.L49+1
 361 0088 E7000000 		.word	.L49+1
 362 008c E7000000 		.word	.L49+1
 363 0090 E7000000 		.word	.L49+1
 364 0094 E7000000 		.word	.L49+1
 365 0098 C3000000 		.word	.L20+1
 366              		.p2align 1
 367              	.L15:
  98:.\main.c      ****                 case 'A': // Start
  99:.\main.c      ****                     #ifdef DEBUG_OUTPUT
 100:.\main.c      ****                     UART_PutString(" Start");
 101:.\main.c      ****                     #endif
 102:.\main.c      ****                     
 103:.\main.c      ****                     if (!adcOn) {
 368              		.loc 1 103 0
 369 009c 884B     		ldr	r3, .L52
 370 009e 1B78     		ldrb	r3, [r3]	@ zero_extendqisi2
 371 00a0 002B     		cmp	r3, #0
 372 00a2 0DD1     		bne	.L21
 104:.\main.c      ****                         ADC_StartConvert();
 373              		.loc 1 104 0
 374 00a4 FFF7FEFF 		bl	ADC_StartConvert
 105:.\main.c      ****                         TIMER_DMA_Start();
 375              		.loc 1 105 0
 376 00a8 FFF7FEFF 		bl	TIMER_DMA_Start
 106:.\main.c      ****                         adcOn = 1;
 377              		.loc 1 106 0
 378 00ac 844B     		ldr	r3, .L52
 379 00ae 0122     		movs	r2, #1
 380 00b0 1A70     		strb	r2, [r3]
 107:.\main.c      ****                         CyDmaChEnable(DMA_ADC_MEM_Chan, 1);
 381              		.loc 1 107 0
 382 00b2 844B     		ldr	r3, .L52+4
 383 00b4 1B78     		ldrb	r3, [r3]	@ zero_extendqisi2
 384 00b6 1846     		mov	r0, r3
ARM GAS  C:\Users\Leiuqeze\AppData\Local\Temp\ccpKB82g.s 			page 10


 385 00b8 0121     		movs	r1, #1
 386 00ba FFF7FEFF 		bl	CyDmaChEnable
 108:.\main.c      ****                     }
 109:.\main.c      ****                     
 110:.\main.c      ****                     break;
 387              		.loc 1 110 0
 388 00be 13E0     		b	.L22
 389              	.L21:
 390 00c0 12E0     		b	.L22
 391              	.L20:
 111:.\main.c      ****                 case 'F': // Samples per frame
 112:.\main.c      ****                     #ifdef DEBUG_OUTPUT
 113:.\main.c      ****                     UART_PutString(" SPF");
 114:.\main.c      ****                     #endif
 115:.\main.c      ****                     break;
 116:.\main.c      ****                 case 'R': // Resolution
 117:.\main.c      ****                     #ifdef DEBUG_OUTPUT
 118:.\main.c      ****                     UART_PutString(" Res");
 119:.\main.c      ****                     #endif
 120:.\main.c      ****                     break;
 121:.\main.c      ****                 case 'S': // Samples per second
 122:.\main.c      ****                     #ifdef DEBUG_OUTPUT
 123:.\main.c      ****                     UART_PutString(" SPS");
 124:.\main.c      ****                     #endif
 125:.\main.c      ****                     break;
 126:.\main.c      ****                 case 'Z': // Stop
 127:.\main.c      ****                     #ifdef DEBUG_OUTPUT
 128:.\main.c      ****                     UART_PutString(" Stop");
 129:.\main.c      ****                     #endif
 130:.\main.c      ****                     
 131:.\main.c      ****                     if (adcOn) {
 392              		.loc 1 131 0
 393 00c2 7F4B     		ldr	r3, .L52
 394 00c4 1B78     		ldrb	r3, [r3]	@ zero_extendqisi2
 395 00c6 002B     		cmp	r3, #0
 396 00c8 0CD0     		beq	.L23
 132:.\main.c      ****                         TIMER_DMA_Stop();
 397              		.loc 1 132 0
 398 00ca FFF7FEFF 		bl	TIMER_DMA_Stop
 133:.\main.c      ****                         ADC_Stop();
 399              		.loc 1 133 0
 400 00ce FFF7FEFF 		bl	ADC_Stop
 134:.\main.c      ****                         CyDmaChDisable(DMA_ADC_MEM_Chan);
 401              		.loc 1 134 0
 402 00d2 7C4B     		ldr	r3, .L52+4
 403 00d4 1B78     		ldrb	r3, [r3]	@ zero_extendqisi2
 404 00d6 1846     		mov	r0, r3
 405 00d8 FFF7FEFF 		bl	CyDmaChDisable
 135:.\main.c      ****                         adcOn = 0;
 406              		.loc 1 135 0
 407 00dc 784B     		ldr	r3, .L52
 408 00de 0022     		movs	r2, #0
 409 00e0 1A70     		strb	r2, [r3]
 136:.\main.c      ****                     }
 137:.\main.c      ****                     
 138:.\main.c      ****                     break;
 410              		.loc 1 138 0
ARM GAS  C:\Users\Leiuqeze\AppData\Local\Temp\ccpKB82g.s 			page 11


 411 00e2 01E0     		b	.L22
 412              	.L23:
 413 00e4 00E0     		b	.L22
 414              	.L49:
 139:.\main.c      ****                 default:  // Unexpected parameter
 140:.\main.c      ****                     #ifdef DEBUG_OUTPUT
 141:.\main.c      ****                     UART_PutString(" Unknown");
 142:.\main.c      ****                     #endif
 143:.\main.c      ****                     break;
 415              		.loc 1 143 0
 416 00e6 00BF     		nop
 417              	.L22:
 144:.\main.c      ****             }
 145:.\main.c      ****             param = strpbrk(param, ADC_PARAMS);
 418              		.loc 1 145 0
 419 00e8 F868     		ldr	r0, [r7, #12]
 420 00ea 7749     		ldr	r1, .L52+8
 421 00ec FFF7FEFF 		bl	strpbrk
 422 00f0 F860     		str	r0, [r7, #12]
 423              	.L13:
  96:.\main.c      ****         while (*param != '#') {
 424              		.loc 1 96 0 discriminator 1
 425 00f2 FB68     		ldr	r3, [r7, #12]
 426 00f4 1B78     		ldrb	r3, [r3]	@ zero_extendqisi2
 427 00f6 232B     		cmp	r3, #35
 428 00f8 91D1     		bne	.L24
 429 00fa DEE0     		b	.L11
 430              	.L12:
 146:.\main.c      ****         }
 147:.\main.c      ****         #ifdef DEBUG_OUTPUT
 148:.\main.c      ****         UART_PutString("\n\r");
 149:.\main.c      ****         #endif
 150:.\main.c      ****     }
 151:.\main.c      ****     else if (*param == 'D') {
 431              		.loc 1 151 0
 432 00fc FB68     		ldr	r3, [r7, #12]
 433 00fe 1B78     		ldrb	r3, [r3]	@ zero_extendqisi2
 434 0100 442B     		cmp	r3, #68
 435 0102 40F0D680 		bne	.L26
 152:.\main.c      ****         #ifdef DEBUG_OUTPUT
 153:.\main.c      ****         UART_PutString("DAC");
 154:.\main.c      ****         #endif
 155:.\main.c      ****         ++param;
 436              		.loc 1 155 0
 437 0106 FB68     		ldr	r3, [r7, #12]
 438 0108 0133     		adds	r3, r3, #1
 439 010a FB60     		str	r3, [r7, #12]
 156:.\main.c      ****         while (*param != '#') {
 440              		.loc 1 156 0
 441 010c CBE0     		b	.L27
 442              	.L48:
 157:.\main.c      ****             switch (*param++) {
 443              		.loc 1 157 0
 444 010e FB68     		ldr	r3, [r7, #12]
 445 0110 5A1C     		adds	r2, r3, #1
 446 0112 FA60     		str	r2, [r7, #12]
 447 0114 1B78     		ldrb	r3, [r3]	@ zero_extendqisi2
ARM GAS  C:\Users\Leiuqeze\AppData\Local\Temp\ccpKB82g.s 			page 12


 448 0116 413B     		subs	r3, r3, #65
 449 0118 192B     		cmp	r3, #25
 450 011a 00F2BE80 		bhi	.L50
 451 011e 01A2     		adr	r2, .L30
 452 0120 52F823F0 		ldr	pc, [r2, r3, lsl #2]
 453              		.p2align 2
 454              	.L30:
 455 0124 8D010000 		.word	.L29+1
 456 0128 9B020000 		.word	.L50+1
 457 012c 9B020000 		.word	.L50+1
 458 0130 9B020000 		.word	.L50+1
 459 0134 9B020000 		.word	.L50+1
 460 0138 9B020000 		.word	.L50+1
 461 013c 9B020000 		.word	.L50+1
 462 0140 9B020000 		.word	.L50+1
 463 0144 9B020000 		.word	.L50+1
 464 0148 9B020000 		.word	.L50+1
 465 014c 9B020000 		.word	.L50+1
 466 0150 9B020000 		.word	.L50+1
 467 0154 9B020000 		.word	.L50+1
 468 0158 9B020000 		.word	.L50+1
 469 015c 9B020000 		.word	.L50+1
 470 0160 9B020000 		.word	.L50+1
 471 0164 9B020000 		.word	.L50+1
 472 0168 9B020000 		.word	.L50+1
 473 016c 9B020000 		.word	.L50+1
 474 0170 9B020000 		.word	.L50+1
 475 0174 9B020000 		.word	.L50+1
 476 0178 9B020000 		.word	.L50+1
 477 017c BB010000 		.word	.L35+1
 478 0180 9B020000 		.word	.L50+1
 479 0184 9B020000 		.word	.L50+1
 480 0188 7D020000 		.word	.L36+1
 481              		.p2align 1
 482              	.L29:
 158:.\main.c      ****                 case 'A': // Start
 159:.\main.c      ****                     #ifdef DEBUG_OUTPUT
 160:.\main.c      ****                     UART_PutString(" Start");
 161:.\main.c      ****                     #endif
 162:.\main.c      ****                     
 163:.\main.c      ****                     if (!dacOn) {
 483              		.loc 1 163 0
 484 018c 4F4B     		ldr	r3, .L52+12
 485 018e 1B78     		ldrb	r3, [r3]	@ zero_extendqisi2
 486 0190 002B     		cmp	r3, #0
 487 0192 11D1     		bne	.L37
 164:.\main.c      ****                         MUX_DAC_FastSelect(ms);
 488              		.loc 1 164 0
 489 0194 4E4B     		ldr	r3, .L52+16
 490 0196 1B78     		ldrb	r3, [r3]	@ zero_extendqisi2
 491 0198 1846     		mov	r0, r3
 492 019a FFF7FEFF 		bl	MUX_DAC_FastSelect
 165:.\main.c      ****                         Control_DAC_Write(ws);
 493              		.loc 1 165 0
 494 019e 4D4B     		ldr	r3, .L52+20
 495 01a0 1B78     		ldrb	r3, [r3]	@ zero_extendqisi2
 496 01a2 1846     		mov	r0, r3
ARM GAS  C:\Users\Leiuqeze\AppData\Local\Temp\ccpKB82g.s 			page 13


 497 01a4 FFF7FEFF 		bl	Control_DAC_Write
 166:.\main.c      ****                         DAC_1_Start();
 498              		.loc 1 166 0
 499 01a8 FFF7FEFF 		bl	DAC_1_Start
 167:.\main.c      ****                         DAC_2_Start();
 500              		.loc 1 167 0
 501 01ac FFF7FEFF 		bl	DAC_2_Start
 168:.\main.c      ****                         dacOn = 1;
 502              		.loc 1 168 0
 503 01b0 464B     		ldr	r3, .L52+12
 504 01b2 0122     		movs	r2, #1
 505 01b4 1A70     		strb	r2, [r3]
 169:.\main.c      ****                     }
 170:.\main.c      ****                     
 171:.\main.c      ****                     break;
 506              		.loc 1 171 0
 507 01b6 71E0     		b	.L38
 508              	.L37:
 509 01b8 70E0     		b	.L38
 510              	.L35:
 172:.\main.c      ****                 case 'D': // Duty cycle
 173:.\main.c      ****                     #ifdef DEBUG_OUTPUT
 174:.\main.c      ****                     UART_PutString(" Duty");
 175:.\main.c      ****                     #endif
 176:.\main.c      ****                     break;
 177:.\main.c      ****                 case 'F': // Frequency
 178:.\main.c      ****                     #ifdef DEBUG_OUTPUT
 179:.\main.c      ****                     UART_PutString(" Freq");
 180:.\main.c      ****                     #endif
 181:.\main.c      ****                     break;
 182:.\main.c      ****                 case 'O': // Offset
 183:.\main.c      ****                     #ifdef DEBUG_OUTPUT
 184:.\main.c      ****                     UART_PutString(" Offset");
 185:.\main.c      ****                     #endif
 186:.\main.c      ****                     break;
 187:.\main.c      ****                 case 'V': // Peak to Peak Voltage
 188:.\main.c      ****                     #ifdef DEBUG_OUTPUT
 189:.\main.c      ****                     UART_PutString(" VPP");
 190:.\main.c      ****                     #endif
 191:.\main.c      ****                     break;
 192:.\main.c      ****                 case 'W': // Waveform
 193:.\main.c      ****                     #ifdef DEBUG_OUTPUT
 194:.\main.c      ****                     UART_PutString(" Wave");
 195:.\main.c      ****                     #endif
 196:.\main.c      ****                     
 197:.\main.c      ****                     // Settings for current DAC setup
 198:.\main.c      ****                     //       MUX 0   MUX 1
 199:.\main.c      ****                     // REG0  Sine    Triangle
 200:.\main.c      ****                     // REG1  Square  Arbitrary
 201:.\main.c      ****                     //
 202:.\main.c      ****                     // S(I)ne, S(Q)uare, Sa(W)tooth, (T)riangle, (A)rbitrary
 203:.\main.c      ****                     switch (*++param) {
 511              		.loc 1 203 0
 512 01ba FB68     		ldr	r3, [r7, #12]
 513 01bc 0133     		adds	r3, r3, #1
 514 01be FB60     		str	r3, [r7, #12]
 515 01c0 FB68     		ldr	r3, [r7, #12]
ARM GAS  C:\Users\Leiuqeze\AppData\Local\Temp\ccpKB82g.s 			page 14


 516 01c2 1B78     		ldrb	r3, [r3]	@ zero_extendqisi2
 517 01c4 413B     		subs	r3, r3, #65
 518 01c6 162B     		cmp	r3, #22
 519 01c8 4CD8     		bhi	.L51
 520 01ca 01A2     		adr	r2, .L41
 521 01cc 52F823F0 		ldr	pc, [r2, r3, lsl #2]
 522              		.p2align 2
 523              	.L41:
 524 01d0 2D020000 		.word	.L40+1
 525 01d4 65020000 		.word	.L51+1
 526 01d8 65020000 		.word	.L51+1
 527 01dc 65020000 		.word	.L51+1
 528 01e0 65020000 		.word	.L51+1
 529 01e4 65020000 		.word	.L51+1
 530 01e8 65020000 		.word	.L51+1
 531 01ec 65020000 		.word	.L51+1
 532 01f0 3B020000 		.word	.L42+1
 533 01f4 65020000 		.word	.L51+1
 534 01f8 65020000 		.word	.L51+1
 535 01fc 65020000 		.word	.L51+1
 536 0200 65020000 		.word	.L51+1
 537 0204 65020000 		.word	.L51+1
 538 0208 65020000 		.word	.L51+1
 539 020c 65020000 		.word	.L51+1
 540 0210 49020000 		.word	.L43+1
 541 0214 65020000 		.word	.L51+1
 542 0218 65020000 		.word	.L51+1
 543 021c 57020000 		.word	.L44+1
 544 0220 65020000 		.word	.L51+1
 545 0224 65020000 		.word	.L51+1
 546 0228 65020000 		.word	.L51+1
 547              		.p2align 1
 548              	.L40:
 204:.\main.c      ****                         case 'A':
 205:.\main.c      ****                             ms = 1;
 549              		.loc 1 205 0
 550 022c 284B     		ldr	r3, .L52+16
 551 022e 0122     		movs	r2, #1
 552 0230 1A70     		strb	r2, [r3]
 206:.\main.c      ****                             ws = 1;
 553              		.loc 1 206 0
 554 0232 284B     		ldr	r3, .L52+20
 555 0234 0122     		movs	r2, #1
 556 0236 1A70     		strb	r2, [r3]
 207:.\main.c      ****                             break;
 557              		.loc 1 207 0
 558 0238 15E0     		b	.L46
 559              	.L42:
 208:.\main.c      ****                         case 'I':
 209:.\main.c      ****                             ms = 0;
 560              		.loc 1 209 0
 561 023a 254B     		ldr	r3, .L52+16
 562 023c 0022     		movs	r2, #0
 563 023e 1A70     		strb	r2, [r3]
 210:.\main.c      ****                             ws = 0;
 564              		.loc 1 210 0
 565 0240 244B     		ldr	r3, .L52+20
ARM GAS  C:\Users\Leiuqeze\AppData\Local\Temp\ccpKB82g.s 			page 15


 566 0242 0022     		movs	r2, #0
 567 0244 1A70     		strb	r2, [r3]
 211:.\main.c      ****                             break;
 568              		.loc 1 211 0
 569 0246 0EE0     		b	.L46
 570              	.L43:
 212:.\main.c      ****                         case 'Q':
 213:.\main.c      ****                             ms = 0;
 571              		.loc 1 213 0
 572 0248 214B     		ldr	r3, .L52+16
 573 024a 0022     		movs	r2, #0
 574 024c 1A70     		strb	r2, [r3]
 214:.\main.c      ****                             ws = 1;
 575              		.loc 1 214 0
 576 024e 214B     		ldr	r3, .L52+20
 577 0250 0122     		movs	r2, #1
 578 0252 1A70     		strb	r2, [r3]
 215:.\main.c      ****                             break;
 579              		.loc 1 215 0
 580 0254 07E0     		b	.L46
 581              	.L44:
 216:.\main.c      ****                         case 'T':
 217:.\main.c      ****                             ms = 1;
 582              		.loc 1 217 0
 583 0256 1E4B     		ldr	r3, .L52+16
 584 0258 0122     		movs	r2, #1
 585 025a 1A70     		strb	r2, [r3]
 218:.\main.c      ****                             ws = 0;
 586              		.loc 1 218 0
 587 025c 1D4B     		ldr	r3, .L52+20
 588 025e 0022     		movs	r2, #0
 589 0260 1A70     		strb	r2, [r3]
 219:.\main.c      ****                             break;
 590              		.loc 1 219 0
 591 0262 00E0     		b	.L46
 592              	.L51:
 220:.\main.c      ****                         case 'W':
 221:.\main.c      ****                             // Not yet implemented
 222:.\main.c      ****                             break;
 223:.\main.c      ****                         default:
 224:.\main.c      ****                             // Bad parameter
 225:.\main.c      ****                             break;
 593              		.loc 1 225 0
 594 0264 00BF     		nop
 595              	.L46:
 226:.\main.c      ****                     }
 227:.\main.c      ****                     
 228:.\main.c      ****                     Control_DAC_Write(ws);
 596              		.loc 1 228 0
 597 0266 1B4B     		ldr	r3, .L52+20
 598 0268 1B78     		ldrb	r3, [r3]	@ zero_extendqisi2
 599 026a 1846     		mov	r0, r3
 600 026c FFF7FEFF 		bl	Control_DAC_Write
 229:.\main.c      ****                     MUX_DAC_FastSelect(ms);
 601              		.loc 1 229 0
 602 0270 174B     		ldr	r3, .L52+16
 603 0272 1B78     		ldrb	r3, [r3]	@ zero_extendqisi2
ARM GAS  C:\Users\Leiuqeze\AppData\Local\Temp\ccpKB82g.s 			page 16


 604 0274 1846     		mov	r0, r3
 605 0276 FFF7FEFF 		bl	MUX_DAC_FastSelect
 230:.\main.c      ****                     
 231:.\main.c      ****                     break;
 606              		.loc 1 231 0
 607 027a 0FE0     		b	.L38
 608              	.L36:
 232:.\main.c      ****                 case 'Z': // Stop
 233:.\main.c      ****                     #ifdef DEBUG_OUTPUT
 234:.\main.c      ****                     UART_PutString(" Stop");
 235:.\main.c      ****                     #endif
 236:.\main.c      ****                     
 237:.\main.c      ****                     if (dacOn) {
 609              		.loc 1 237 0
 610 027c 134B     		ldr	r3, .L52+12
 611 027e 1B78     		ldrb	r3, [r3]	@ zero_extendqisi2
 612 0280 002B     		cmp	r3, #0
 613 0282 09D0     		beq	.L47
 238:.\main.c      ****                         MUX_DAC_DisconnectAll();
 614              		.loc 1 238 0
 615 0284 FFF7FEFF 		bl	MUX_DAC_DisconnectAll
 239:.\main.c      ****                         DAC_1_Stop();
 616              		.loc 1 239 0
 617 0288 FFF7FEFF 		bl	DAC_1_Stop
 240:.\main.c      ****                         DAC_2_Stop();
 618              		.loc 1 240 0
 619 028c FFF7FEFF 		bl	DAC_2_Stop
 241:.\main.c      ****                         dacOn = 0;
 620              		.loc 1 241 0
 621 0290 0E4B     		ldr	r3, .L52+12
 622 0292 0022     		movs	r2, #0
 623 0294 1A70     		strb	r2, [r3]
 242:.\main.c      ****                     }
 243:.\main.c      ****                     
 244:.\main.c      ****                     break;
 624              		.loc 1 244 0
 625 0296 01E0     		b	.L38
 626              	.L47:
 627 0298 00E0     		b	.L38
 628              	.L50:
 245:.\main.c      ****                 default:  // Unexpected parameter
 246:.\main.c      ****                     #ifdef DEBUG_OUTPUT
 247:.\main.c      ****                     UART_PutString(" Unknown");
 248:.\main.c      ****                     #endif
 249:.\main.c      ****                     break;
 629              		.loc 1 249 0
 630 029a 00BF     		nop
 631              	.L38:
 250:.\main.c      ****             }
 251:.\main.c      ****             param = strpbrk(param, DAC_PARAMS);
 632              		.loc 1 251 0
 633 029c F868     		ldr	r0, [r7, #12]
 634 029e 0E49     		ldr	r1, .L52+24
 635 02a0 FFF7FEFF 		bl	strpbrk
 636 02a4 F860     		str	r0, [r7, #12]
 637              	.L27:
 156:.\main.c      ****         while (*param != '#') {
ARM GAS  C:\Users\Leiuqeze\AppData\Local\Temp\ccpKB82g.s 			page 17


 638              		.loc 1 156 0 discriminator 1
 639 02a6 FB68     		ldr	r3, [r7, #12]
 640 02a8 1B78     		ldrb	r3, [r3]	@ zero_extendqisi2
 641 02aa 232B     		cmp	r3, #35
 642 02ac 7FF42FAF 		bne	.L48
 643 02b0 03E0     		b	.L11
 644              	.L26:
 252:.\main.c      ****         }
 253:.\main.c      ****         #ifdef DEBUG_OUTPUT
 254:.\main.c      ****         UART_PutString("\n\r");
 255:.\main.c      ****         #endif
 256:.\main.c      ****     }
 257:.\main.c      ****     else if (strcmp(command, PC_DISCONNECT) == 0) {
 645              		.loc 1 257 0
 646 02b2 0A48     		ldr	r0, .L52+28
 647 02b4 0A49     		ldr	r1, .L52+32
 648 02b6 FFF7FEFF 		bl	strcmp
 649              	.L11:
 258:.\main.c      ****         // Set everything to default and uninitialize
 259:.\main.c      ****     }
 260:.\main.c      ****     else { // Unspecified command
 261:.\main.c      ****     }
 262:.\main.c      **** }
 650              		.loc 1 262 0
 651 02ba 1037     		adds	r7, r7, #16
 652 02bc BD46     		mov	sp, r7
 653              		@ sp needed
 654 02be 80BD     		pop	{r7, pc}
 655              	.L53:
 656              		.align	2
 657              	.L52:
 658 02c0 00000000 		.word	adcOn
 659 02c4 00000000 		.word	DMA_ADC_MEM_Chan
 660 02c8 28000000 		.word	.LC3
 661 02cc 00000000 		.word	dacOn
 662 02d0 00000000 		.word	ms
 663 02d4 00000000 		.word	ws
 664 02d8 30000000 		.word	.LC4
 665 02dc 00000000 		.word	command
 666 02e0 3C000000 		.word	.LC5
 667              		.cfi_endproc
 668              	.LFE57:
 669              		.size	parseCommand, .-parseCommand
 670              		.section	.text.UART_RX_INTER,"ax",%progbits
 671              		.align	2
 672              		.global	UART_RX_INTER
 673              		.thumb
 674              		.thumb_func
 675              		.type	UART_RX_INTER, %function
 676              	UART_RX_INTER:
 677              	.LFB58:
 263:.\main.c      **** 
 264:.\main.c      **** CY_ISR(UART_RX_INTER) {
 678              		.loc 1 264 0
 679              		.cfi_startproc
 680              		@ args = 0, pretend = 0, frame = 8
 681              		@ frame_needed = 1, uses_anonymous_args = 0
ARM GAS  C:\Users\Leiuqeze\AppData\Local\Temp\ccpKB82g.s 			page 18


 682 0000 80B5     		push	{r7, lr}
 683              		.cfi_def_cfa_offset 8
 684              		.cfi_offset 7, -8
 685              		.cfi_offset 14, -4
 686 0002 82B0     		sub	sp, sp, #8
 687              		.cfi_def_cfa_offset 16
 688 0004 00AF     		add	r7, sp, #0
 689              		.cfi_def_cfa_register 7
 265:.\main.c      ****     char c;
 266:.\main.c      ****     
 267:.\main.c      ****     // Build the command if no other command is pending
 268:.\main.c      ****     // Need error checking for command greater than 32 chars**************************
 269:.\main.c      ****     while (UART_GetRxBufferSize() && !commandReady) {
 690              		.loc 1 269 0
 691 0006 2CE0     		b	.L55
 692              	.L58:
 270:.\main.c      ****         c = UART_GetChar();
 693              		.loc 1 270 0
 694 0008 FFF7FEFF 		bl	UART_GetChar
 695 000c 0346     		mov	r3, r0
 696 000e FB71     		strb	r3, [r7, #7]
 271:.\main.c      ****         if (rxBufLen || c == '#') { // Filters out random bytes
 697              		.loc 1 271 0
 698 0010 1B4B     		ldr	r3, .L59
 699 0012 1B78     		ldrb	r3, [r3]	@ zero_extendqisi2
 700 0014 002B     		cmp	r3, #0
 701 0016 02D1     		bne	.L56
 702              		.loc 1 271 0 is_stmt 0 discriminator 1
 703 0018 FB79     		ldrb	r3, [r7, #7]	@ zero_extendqisi2
 704 001a 232B     		cmp	r3, #35
 705 001c 21D1     		bne	.L55
 706              	.L56:
 272:.\main.c      ****             rxBuffer[rxBufLen] = c;
 707              		.loc 1 272 0 is_stmt 1
 708 001e 184B     		ldr	r3, .L59
 709 0020 1B78     		ldrb	r3, [r3]	@ zero_extendqisi2
 710 0022 184A     		ldr	r2, .L59+4
 711 0024 F979     		ldrb	r1, [r7, #7]
 712 0026 D154     		strb	r1, [r2, r3]
 273:.\main.c      ****             if (rxBufLen++ && c == '#') { // End packet
 713              		.loc 1 273 0
 714 0028 154B     		ldr	r3, .L59
 715 002a 1B78     		ldrb	r3, [r3]	@ zero_extendqisi2
 716 002c 5A1C     		adds	r2, r3, #1
 717 002e D1B2     		uxtb	r1, r2
 718 0030 134A     		ldr	r2, .L59
 719 0032 1170     		strb	r1, [r2]
 720 0034 002B     		cmp	r3, #0
 721 0036 14D0     		beq	.L55
 722              		.loc 1 273 0 is_stmt 0 discriminator 1
 723 0038 FB79     		ldrb	r3, [r7, #7]	@ zero_extendqisi2
 724 003a 232B     		cmp	r3, #35
 725 003c 11D1     		bne	.L55
 274:.\main.c      ****                 commandReady = 1;
 726              		.loc 1 274 0 is_stmt 1
 727 003e 124B     		ldr	r3, .L59+8
 728 0040 0122     		movs	r2, #1
ARM GAS  C:\Users\Leiuqeze\AppData\Local\Temp\ccpKB82g.s 			page 19


 729 0042 1A70     		strb	r2, [r3]
 275:.\main.c      ****                 strncpy(command, rxBuffer, rxBufLen);
 730              		.loc 1 275 0
 731 0044 0E4B     		ldr	r3, .L59
 732 0046 1B78     		ldrb	r3, [r3]	@ zero_extendqisi2
 733 0048 1048     		ldr	r0, .L59+12
 734 004a 0E49     		ldr	r1, .L59+4
 735 004c 1A46     		mov	r2, r3
 736 004e FFF7FEFF 		bl	strncpy
 276:.\main.c      ****                 command[rxBufLen] = 0;
 737              		.loc 1 276 0
 738 0052 0B4B     		ldr	r3, .L59
 739 0054 1B78     		ldrb	r3, [r3]	@ zero_extendqisi2
 740 0056 0D4A     		ldr	r2, .L59+12
 741 0058 0021     		movs	r1, #0
 742 005a D154     		strb	r1, [r2, r3]
 277:.\main.c      ****                 rxBufLen = 0;
 743              		.loc 1 277 0
 744 005c 084B     		ldr	r3, .L59
 745 005e 0022     		movs	r2, #0
 746 0060 1A70     		strb	r2, [r3]
 747              	.L55:
 269:.\main.c      ****     while (UART_GetRxBufferSize() && !commandReady) {
 748              		.loc 1 269 0 discriminator 1
 749 0062 FFF7FEFF 		bl	UART_GetRxBufferSize
 750 0066 0346     		mov	r3, r0
 751 0068 002B     		cmp	r3, #0
 752 006a 03D0     		beq	.L57
 269:.\main.c      ****     while (UART_GetRxBufferSize() && !commandReady) {
 753              		.loc 1 269 0 is_stmt 0 discriminator 2
 754 006c 064B     		ldr	r3, .L59+8
 755 006e 1B78     		ldrb	r3, [r3]	@ zero_extendqisi2
 756 0070 002B     		cmp	r3, #0
 757 0072 C9D0     		beq	.L58
 758              	.L57:
 278:.\main.c      ****             }
 279:.\main.c      ****         }
 280:.\main.c      ****         else {
 281:.\main.c      ****             #ifdef DEBUG_OUTPUT
 282:.\main.c      ****             UART_PutString("Random bytes");
 283:.\main.c      ****             #endif
 284:.\main.c      ****         }
 285:.\main.c      ****     }
 286:.\main.c      ****     
 287:.\main.c      ****     // Check for error with UART module
 288:.\main.c      ****     if (UART_ReadRxStatus() & (UART_RX_STS_OVERRUN | UART_RX_STS_PAR_ERROR |
 759              		.loc 1 288 0 is_stmt 1
 760 0074 FFF7FEFF 		bl	UART_ReadRxStatus
 289:.\main.c      ****      UART_RX_STS_STOP_ERROR | UART_RX_STS_BREAK)) {
 290:.\main.c      ****         // Maybe do something about it
 291:.\main.c      ****         // Clear buffer and request resend
 292:.\main.c      ****     }
 293:.\main.c      **** }
 761              		.loc 1 293 0
 762 0078 0837     		adds	r7, r7, #8
 763 007a BD46     		mov	sp, r7
 764              		@ sp needed
ARM GAS  C:\Users\Leiuqeze\AppData\Local\Temp\ccpKB82g.s 			page 20


 765 007c 80BD     		pop	{r7, pc}
 766              	.L60:
 767 007e 00BF     		.align	2
 768              	.L59:
 769 0080 00000000 		.word	rxBufLen
 770 0084 00000000 		.word	rxBuffer
 771 0088 00000000 		.word	commandReady
 772 008c 00000000 		.word	command
 773              		.cfi_endproc
 774              	.LFE58:
 775              		.size	UART_RX_INTER, .-UART_RX_INTER
 776              		.section	.text.TIMER_DMA_INTER,"ax",%progbits
 777              		.align	2
 778              		.global	TIMER_DMA_INTER
 779              		.thumb
 780              		.thumb_func
 781              		.type	TIMER_DMA_INTER, %function
 782              	TIMER_DMA_INTER:
 783              	.LFB59:
 294:.\main.c      **** 
 295:.\main.c      **** // Used to reenable the ADC to MEM DMA so that another frame can be captured
 296:.\main.c      **** CY_ISR(TIMER_DMA_INTER) {
 784              		.loc 1 296 0
 785              		.cfi_startproc
 786              		@ args = 0, pretend = 0, frame = 0
 787              		@ frame_needed = 1, uses_anonymous_args = 0
 788 0000 80B5     		push	{r7, lr}
 789              		.cfi_def_cfa_offset 8
 790              		.cfi_offset 7, -8
 791              		.cfi_offset 14, -4
 792 0002 00AF     		add	r7, sp, #0
 793              		.cfi_def_cfa_register 7
 297:.\main.c      ****     #ifdef DEBUG_OUTPUT
 298:.\main.c      ****     UART_PutString("DMA Reenabled\r\n");
 299:.\main.c      ****     #endif
 300:.\main.c      ****     CyDmaChEnable(DMA_ADC_MEM_Chan, 1);
 794              		.loc 1 300 0
 795 0004 034B     		ldr	r3, .L62
 796 0006 1B78     		ldrb	r3, [r3]	@ zero_extendqisi2
 797 0008 1846     		mov	r0, r3
 798 000a 0121     		movs	r1, #1
 799 000c FFF7FEFF 		bl	CyDmaChEnable
 301:.\main.c      **** }
 800              		.loc 1 301 0
 801 0010 80BD     		pop	{r7, pc}
 802              	.L63:
 803 0012 00BF     		.align	2
 804              	.L62:
 805 0014 00000000 		.word	DMA_ADC_MEM_Chan
 806              		.cfi_endproc
 807              	.LFE59:
 808              		.size	TIMER_DMA_INTER, .-TIMER_DMA_INTER
 809              		.section	.text.DMA_FRAME_INTER,"ax",%progbits
 810              		.align	2
 811              		.global	DMA_FRAME_INTER
 812              		.thumb
 813              		.thumb_func
ARM GAS  C:\Users\Leiuqeze\AppData\Local\Temp\ccpKB82g.s 			page 21


 814              		.type	DMA_FRAME_INTER, %function
 815              	DMA_FRAME_INTER:
 816              	.LFB60:
 302:.\main.c      **** 
 303:.\main.c      **** // Used to notify Main that a frame is ready for transmission
 304:.\main.c      **** CY_ISR(DMA_FRAME_INTER) {
 817              		.loc 1 304 0
 818              		.cfi_startproc
 819              		@ args = 0, pretend = 0, frame = 0
 820              		@ frame_needed = 1, uses_anonymous_args = 0
 821              		@ link register save eliminated.
 822 0000 80B4     		push	{r7}
 823              		.cfi_def_cfa_offset 4
 824              		.cfi_offset 7, -4
 825 0002 00AF     		add	r7, sp, #0
 826              		.cfi_def_cfa_register 7
 305:.\main.c      ****     #ifdef DEBUG_OUTPUT
 306:.\main.c      ****     UART_PutString("Frame Captured\r\n");
 307:.\main.c      ****     #endif
 308:.\main.c      ****     adcFrameReady = 1;
 827              		.loc 1 308 0
 828 0004 034B     		ldr	r3, .L65
 829 0006 0122     		movs	r2, #1
 830 0008 1A70     		strb	r2, [r3]
 309:.\main.c      **** }
 831              		.loc 1 309 0
 832 000a BD46     		mov	sp, r7
 833              		@ sp needed
 834 000c 5DF8047B 		ldr	r7, [sp], #4
 835 0010 7047     		bx	lr
 836              	.L66:
 837 0012 00BF     		.align	2
 838              	.L65:
 839 0014 00000000 		.word	adcFrameReady
 840              		.cfi_endproc
 841              	.LFE60:
 842              		.size	DMA_FRAME_INTER, .-DMA_FRAME_INTER
 843              		.section	.text.DMA_ADC_MEM_Config,"ax",%progbits
 844              		.align	2
 845              		.global	DMA_ADC_MEM_Config
 846              		.thumb
 847              		.thumb_func
 848              		.type	DMA_ADC_MEM_Config, %function
 849              	DMA_ADC_MEM_Config:
 850              	.LFB61:
 310:.\main.c      **** 
 311:.\main.c      **** /*  Code created by the DMA Wizard. Initializes the DMA to transfer ADC_FRAME_SIZE samples
 312:.\main.c      ****  *  to the array adcFrame. After one frame capture it disables the channel and waits to be
 313:.\main.c      ****  *  reenabled.
 314:.\main.c      ****  */
 315:.\main.c      **** void DMA_ADC_MEM_Config() {
 851              		.loc 1 315 0
 852              		.cfi_startproc
 853              		@ args = 0, pretend = 0, frame = 0
 854              		@ frame_needed = 1, uses_anonymous_args = 0
 855 0000 80B5     		push	{r7, lr}
 856              		.cfi_def_cfa_offset 8
ARM GAS  C:\Users\Leiuqeze\AppData\Local\Temp\ccpKB82g.s 			page 22


 857              		.cfi_offset 7, -8
 858              		.cfi_offset 14, -4
 859 0002 00AF     		add	r7, sp, #0
 860              		.cfi_def_cfa_register 7
 316:.\main.c      ****     DMA_ADC_MEM_Chan = DMA_ADC_MEM_DmaInitialize(DMA_ADC_MEM_BYTES_PER_BURST, DMA_ADC_MEM_REQUEST_P
 861              		.loc 1 316 0
 862 0004 0220     		movs	r0, #2
 863 0006 0121     		movs	r1, #1
 864 0008 4FF48042 		mov	r2, #16384
 865 000c 41F6FF73 		movw	r3, #8191
 866 0010 FFF7FEFF 		bl	DMA_ADC_MEM_DmaInitialize
 867 0014 0346     		mov	r3, r0
 868 0016 1A46     		mov	r2, r3
 869 0018 114B     		ldr	r3, .L68
 870 001a 1A70     		strb	r2, [r3]
 317:.\main.c      ****      HI16(DMA_ADC_MEM_SRC_BASE), HI16(DMA_ADC_MEM_DST_BASE));
 318:.\main.c      ****     DMA_ADC_MEM_TD[0] = CyDmaTdAllocate();
 871              		.loc 1 318 0
 872 001c FFF7FEFF 		bl	CyDmaTdAllocate
 873 0020 0346     		mov	r3, r0
 874 0022 1A46     		mov	r2, r3
 875 0024 0F4B     		ldr	r3, .L68+4
 876 0026 1A70     		strb	r2, [r3]
 319:.\main.c      ****     CyDmaTdSetConfiguration(DMA_ADC_MEM_TD[0], 2 * ADC_FRAME_SIZE, CY_DMA_DISABLE_TD,
 877              		.loc 1 319 0
 878 0028 0E4B     		ldr	r3, .L68+4
 879 002a 1B78     		ldrb	r3, [r3]	@ zero_extendqisi2
 880 002c 1846     		mov	r0, r3
 881 002e 4FF44871 		mov	r1, #800
 882 0032 FE22     		movs	r2, #254
 883 0034 0623     		movs	r3, #6
 884 0036 FFF7FEFF 		bl	CyDmaTdSetConfiguration
 320:.\main.c      ****      DMA_ADC_MEM__TD_TERMOUT_EN | TD_INC_DST_ADR);
 321:.\main.c      ****     CyDmaTdSetAddress(DMA_ADC_MEM_TD[0], LO16((uint32)ADC_SAR_WRK0_PTR), LO16((uint32)adcFrame));
 885              		.loc 1 321 0
 886 003a 0A4B     		ldr	r3, .L68+4
 887 003c 1A78     		ldrb	r2, [r3]	@ zero_extendqisi2
 888 003e 0A4B     		ldr	r3, .L68+8
 889 0040 9BB2     		uxth	r3, r3
 890 0042 1046     		mov	r0, r2
 891 0044 45F6A231 		movw	r1, #23458
 892 0048 1A46     		mov	r2, r3
 893 004a FFF7FEFF 		bl	CyDmaTdSetAddress
 322:.\main.c      ****     CyDmaChSetInitialTd(DMA_ADC_MEM_Chan, DMA_ADC_MEM_TD[0]);
 894              		.loc 1 322 0
 895 004e 044B     		ldr	r3, .L68
 896 0050 1A78     		ldrb	r2, [r3]	@ zero_extendqisi2
 897 0052 044B     		ldr	r3, .L68+4
 898 0054 1B78     		ldrb	r3, [r3]	@ zero_extendqisi2
 899 0056 1046     		mov	r0, r2
 900 0058 1946     		mov	r1, r3
 901 005a FFF7FEFF 		bl	CyDmaChSetInitialTd
 323:.\main.c      **** }...
 902              		.loc 1 323 0
 903 005e 80BD     		pop	{r7, pc}
 904              	.L69:
 905              		.align	2
ARM GAS  C:\Users\Leiuqeze\AppData\Local\Temp\ccpKB82g.s 			page 23


 906              	.L68:
 907 0060 00000000 		.word	DMA_ADC_MEM_Chan
 908 0064 00000000 		.word	DMA_ADC_MEM_TD
 909 0068 00000000 		.word	adcFrame
 910              		.cfi_endproc
 911              	.LFE61:
 912              		.size	DMA_ADC_MEM_Config, .-DMA_ADC_MEM_Config
 913              		.text
 914              	.Letext0:
 915              		.file 2 "./main.h"
 916              		.file 3 "c:\\program files (x86)\\cypress\\psoc creator\\3.1\\psoc creator\\import\\gnu_cs\\arm\\4
 917              		.file 4 "c:\\program files (x86)\\cypress\\psoc creator\\3.1\\psoc creator\\import\\gnu_cs\\arm\\4
 918              		.file 5 ".\\Generated_Source\\PSoC5/cytypes.h"
 919              		.file 6 ".\\Generated_Source\\PSoC5/core_cm3.h"